; Function Attrs: nounwind uwtable
define zeroext range(i8 0, 2) i8 @l_Int_Linear_dvd__of__eq__cert(ptr noundef %0, ptr noundef %1, ptr noundef %2, ptr noundef %3) local_unnamed_addr #1 {
  %5 = tail call ptr @l_Int_Linear_Poly_coeff(ptr noundef %1, ptr noundef %0)
  %6 = tail call ptr @l___private_Init_Data_Int_Linear_0__Int_Linear_abs(ptr noundef %5)
  %7 = ptrtoint ptr %2 to i64
  %8 = ptrtoint ptr %6 to i64
  %9 = and i64 %8, 1
  %10 = and i64 %9, %7
  %or.cond.not.i.i = icmp eq i64 %10, 0
  br i1 %or.cond.not.i.i, label %.critedge.i.i, label %11, !prof !13

11:                                               ; preds = %4
  %12 = icmp eq ptr %2, %6
  br label %lean_int_dec_eq.exit

.critedge.i.i:                                    ; preds = %4
  %13 = tail call zeroext i1 @lean_int_big_eq(ptr noundef %2, ptr noundef %6) #5
  br label %lean_int_dec_eq.exit

lean_int_dec_eq.exit:                             ; preds = %11, %.critedge.i.i
  %.0.i.i = phi i1 [ %12, %11 ], [ %13, %.critedge.i.i ]
  %.not = icmp eq i64 %9, 0
  br i1 %.not, label %14, label %lean_dec.exit24

14:                                               ; preds = %lean_int_dec_eq.exit
  %15 = load i32, ptr %6, align 4, !tbaa !6
  %16 = icmp sgt i32 %15, 1
  br i1 %16, label %17, label %19, !prof !5

17:                                               ; preds = %14
  %18 = add nsw i32 %15, -1
  store i32 %18, ptr %6, align 4, !tbaa !6
  br label %lean_dec.exit24

19:                                               ; preds = %14
  %.not.i = icmp eq i32 %15, 0
  br i1 %.not.i, label %lean_dec.exit24, label %20

20:                                               ; preds = %19
  tail call void @lean_dec_ref_cold(ptr noundef nonnull %6) #5
  br label %lean_dec.exit24

lean_dec.exit24:                                  ; preds = %20, %19, %17, %lean_int_dec_eq.exit
  %21 = ptrtoint ptr %5 to i64
  %22 = and i64 %21, 1
  %.not.i35 = icmp eq i64 %22, 0
  br i1 %.0.i.i, label %49, label %23

23:                                               ; preds = %lean_dec.exit24
  br i1 %.not.i35, label %24, label %lean_dec.exit23

24:                                               ; preds = %23
  %25 = load i32, ptr %5, align 4, !tbaa !6
  %26 = icmp sgt i32 %25, 1
  br i1 %26, label %27, label %29, !prof !5

27:                                               ; preds = %24
  %28 = add nsw i32 %25, -1
  store i32 %28, ptr %5, align 4, !tbaa !6
  br label %lean_dec.exit23

29:                                               ; preds = %24
  %.not.i25 = icmp eq i32 %25, 0
  br i1 %.not.i25, label %lean_dec.exit23, label %30

30:                                               ; preds = %29
  tail call void @lean_dec_ref_cold(ptr noundef nonnull %5) #5
  br label %lean_dec.exit23

lean_dec.exit23:                                  ; preds = %30, %29, %27, %23
  %31 = ptrtoint ptr %1 to i64
  %32 = and i64 %31, 1
  %.not40 = icmp eq i64 %32, 0
  br i1 %.not40, label %33, label %lean_dec.exit22

33:                                               ; preds = %lean_dec.exit23
  %34 = load i32, ptr %1, align 4, !tbaa !6
  %35 = icmp sgt i32 %34, 1
  br i1 %35, label %36, label %38, !prof !5

36:                                               ; preds = %33
  %37 = add nsw i32 %34, -1
  store i32 %37, ptr %1, align 4, !tbaa !6
  br label %lean_dec.exit22

38:                                               ; preds = %33
  %.not.i27 = icmp eq i32 %34, 0
  br i1 %.not.i27, label %lean_dec.exit22, label %39

39:                                               ; preds = %38
  tail call void @lean_dec_ref_cold(ptr noundef nonnull %1) #5
  br label %lean_dec.exit22

lean_dec.exit22:                                  ; preds = %39, %38, %36, %lean_dec.exit23
  %40 = ptrtoint ptr %0 to i64
  %41 = and i64 %40, 1
  %.not41 = icmp eq i64 %41, 0
  br i1 %.not41, label %42, label %lean_dec.exit21

42:                                               ; preds = %lean_dec.exit22
  %43 = load i32, ptr %0, align 4, !tbaa !6
  %44 = icmp sgt i32 %43, 1
  br i1 %44, label %45, label %47, !prof !5

45:                                               ; preds = %42
  %46 = add nsw i32 %43, -1
  store i32 %46, ptr %0, align 4, !tbaa !6
  br label %lean_dec.exit21

47:                                               ; preds = %42
  %.not.i29 = icmp eq i32 %43, 0
  br i1 %.not.i29, label %lean_dec.exit21, label %48

48:                                               ; preds = %47
  tail call void @lean_dec_ref_cold(ptr noundef nonnull %0) #5
  br label %lean_dec.exit21

49:                                               ; preds = %lean_dec.exit24
  br i1 %.not.i35, label %63, label %50, !prof !4

50:                                               ; preds = %49
  %51 = shl i64 %21, 31
  %52 = ashr i64 %51, 32
  %53 = sub nsw i64 0, %52
  %54 = add nsw i64 %52, 2147483647
  %55 = icmp ult i64 %54, 4294967296
  br i1 %55, label %56, label %61, !prof !5

56:                                               ; preds = %50
  %57 = shl nsw i64 %53, 1
  %58 = and i64 %57, 8589934590
  %59 = or disjoint i64 %58, 1
  %60 = inttoptr i64 %59 to ptr
  br label %lean_dec.exit20

61:                                               ; preds = %50
  %62 = tail call ptr @lean_big_int64_to_int(i64 noundef range(i64 -4611686016279904256, 4611686018427387905) %53) #5
  br label %lean_dec.exit20

63:                                               ; preds = %49
  %64 = tail call ptr @lean_int_big_neg(ptr noundef %5) #5
  %65 = load i32, ptr %5, align 4, !tbaa !6
  %66 = icmp sgt i32 %65, 1
  br i1 %66, label %67, label %69, !prof !5

67:                                               ; preds = %63
  %68 = add nsw i32 %65, -1
  store i32 %68, ptr %5, align 4, !tbaa !6
  br label %lean_dec.exit20

69:                                               ; preds = %63
  %.not.i31 = icmp eq i32 %65, 0
  br i1 %.not.i31, label %lean_dec.exit20, label %70

70:                                               ; preds = %69
  tail call void @lean_dec_ref_cold(ptr noundef nonnull %5) #5
  br label %lean_dec.exit20

lean_dec.exit20:                                  ; preds = %61, %56, %70, %69, %67
  %.0.i37 = phi ptr [ %64, %67 ], [ %64, %69 ], [ %64, %70 ], [ %62, %61 ], [ %60, %56 ]
  %71 = tail call ptr @l_Int_Linear_Poly_insert(ptr noundef %.0.i37, ptr noundef %0, ptr noundef %1)
  %72 = tail call zeroext i8 @l_Int_Linear_beqPoly____x40_Init_Data_Int_Linear___hyg_596_(ptr noundef %3, ptr noundef %71)
  %73 = ptrtoint ptr %71 to i64
  %74 = and i64 %73, 1
  %.not38 = icmp eq i64 %74, 0
  br i1 %.not38, label %75, label %lean_dec.exit21

75:                                               ; preds = %lean_dec.exit20
  %76 = load i32, ptr %71, align 4, !tbaa !6
  %77 = icmp sgt i32 %76, 1
  br i1 %77, label %78, label %80, !prof !5

78:                                               ; preds = %75
  %79 = add nsw i32 %76, -1
  store i32 %79, ptr %71, align 4, !tbaa !6
  br label %lean_dec.exit21

80:                                               ; preds = %75
  %.not.i33 = icmp eq i32 %76, 0
  br i1 %.not.i33, label %lean_dec.exit21, label %81

81:                                               ; preds = %80
  tail call void @lean_dec_ref_cold(ptr noundef nonnull %71) #5
  br label %lean_dec.exit21

lean_dec.exit21:                                  ; preds = %lean_dec.exit20, %78, %80, %81, %lean_dec.exit22, %45, %47, %48
  %.0 = phi i8 [ 0, %48 ], [ 0, %47 ], [ 0, %45 ], [ 0, %lean_dec.exit22 ], [ %72, %81 ], [ %72, %80 ], [ %72, %78 ], [ %72, %lean_dec.exit20 ]
  ret i8 %.0
}